target datalayout = "e-m:e-p270:32:32-p271:32:32-p272:64:64-i64:64-i128:128-f80:128-n8:16:32:64-S128"
target triple = "x86_64-pc-linux-gnu"

%struct.sdshdr8 = type { i8, i8, i8, [0 x i8] }
%struct.sdshdr16 = type <{ i16, i16, i8, [0 x i8] }>
%struct.sdshdr32 = type <{ i32, i32, i8, [0 x i8] }>
%struct.sdshdr64 = type <{ i64, i64, i8, [0 x i8] }>
%struct.functionsLibMataData = type { ptr, ptr, ptr }

@.str.71 = private unnamed_addr constant [3 x i8] c"#!\00", align 1
@.str.72 = private unnamed_addr constant [25 x i8] c"Missing library metadata\00", align 1
@.str.73 = private unnamed_addr constant [25 x i8] c"Invalid library metadata\00", align 1
@.str.74 = private unnamed_addr constant [6 x i8] c"name=\00", align 1
@.str.75 = private unnamed_addr constant [63 x i8] c"Invalid metadata value, name argument was given multiple times\00", align 1
@.str.76 = private unnamed_addr constant [33 x i8] c"Invalid metadata value given: %s\00", align 1
@.str.77 = private unnamed_addr constant [27 x i8] c"Library name was not given\00", align 1

; Function Attrs: inlinehint nounwind uwtable
define internal i64 @sdslen(ptr noundef %0) #8 {
  %2 = alloca i64, align 8
  %3 = alloca ptr, align 8
  %4 = alloca i8, align 1
  %5 = alloca i32, align 4
  store ptr %0, ptr %3, align 8, !tbaa !57
  call void @llvm.lifetime.start.p0(i64 1, ptr %4) #11
  %6 = load ptr, ptr %3, align 8, !tbaa !57
  %7 = getelementptr inbounds i8, ptr %6, i64 -1
  %8 = load i8, ptr %7, align 1, !tbaa !65
  store i8 %8, ptr %4, align 1, !tbaa !65
  %9 = load i8, ptr %4, align 1, !tbaa !65
  %10 = zext i8 %9 to i32
  %11 = and i32 %10, 7
  switch i32 %11, label %40 [
    i32 0, label %12
    i32 1, label %17
    i32 2, label %23
    i32 3, label %29
    i32 4, label %35
  ]

12:                                               ; preds = %1
  %13 = load i8, ptr %4, align 1, !tbaa !65
  %14 = zext i8 %13 to i32
  %15 = ashr i32 %14, 3
  %16 = sext i32 %15 to i64
  store i64 %16, ptr %2, align 8
  store i32 1, ptr %5, align 4
  br label %41

17:                                               ; preds = %1
  %18 = load ptr, ptr %3, align 8, !tbaa !57
  %19 = getelementptr inbounds i8, ptr %18, i64 -3
  %20 = getelementptr inbounds nuw %struct.sdshdr8, ptr %19, i32 0, i32 0
  %21 = load i8, ptr %20, align 1, !tbaa !65
  %22 = zext i8 %21 to i64
  store i64 %22, ptr %2, align 8
  store i32 1, ptr %5, align 4
  br label %41

23:                                               ; preds = %1
  %24 = load ptr, ptr %3, align 8, !tbaa !57
  %25 = getelementptr inbounds i8, ptr %24, i64 -5
  %26 = getelementptr inbounds nuw %struct.sdshdr16, ptr %25, i32 0, i32 0
  %27 = load i16, ptr %26, align 1, !tbaa !113
  %28 = zext i16 %27 to i64
  store i64 %28, ptr %2, align 8
  store i32 1, ptr %5, align 4
  br label %41

29:                                               ; preds = %1
  %30 = load ptr, ptr %3, align 8, !tbaa !57
  %31 = getelementptr inbounds i8, ptr %30, i64 -9
  %32 = getelementptr inbounds nuw %struct.sdshdr32, ptr %31, i32 0, i32 0
  %33 = load i32, ptr %32, align 1, !tbaa !54
  %34 = zext i32 %33 to i64
  store i64 %34, ptr %2, align 8
  store i32 1, ptr %5, align 4
  br label %41

35:                                               ; preds = %1
  %36 = load ptr, ptr %3, align 8, !tbaa !57
  %37 = getelementptr inbounds i8, ptr %36, i64 -17
  %38 = getelementptr inbounds nuw %struct.sdshdr64, ptr %37, i32 0, i32 0
  %39 = load i64, ptr %38, align 1, !tbaa !59
  store i64 %39, ptr %2, align 8
  store i32 1, ptr %5, align 4
  br label %41

40:                                               ; preds = %1
  store i64 0, ptr %2, align 8
  store i32 1, ptr %5, align 4
  br label %41

41:                                               ; preds = %40, %35, %29, %23, %17, %12
  call void @llvm.lifetime.end.p0(i64 1, ptr %4) #11
  %42 = load i64, ptr %2, align 8
  ret i64 %42
}

; Function Attrs: nounwind uwtable
define dso_local i32 @functionExtractLibMetaData(ptr noundef %0, ptr noundef %1, ptr noundef %2) #1 {
  %4 = alloca i32, align 4
  %5 = alloca ptr, align 8
  %6 = alloca ptr, align 8
  %7 = alloca ptr, align 8
  %8 = alloca ptr, align 8
  %9 = alloca ptr, align 8
  %10 = alloca i32, align 4
  %11 = alloca ptr, align 8
  %12 = alloca i64, align 8
  %13 = alloca ptr, align 8
  %14 = alloca i32, align 4
  %15 = alloca ptr, align 8
  %16 = alloca i32, align 4
  %17 = alloca ptr, align 8
  store ptr %0, ptr %5, align 8, !tbaa !57
  store ptr %1, ptr %6, align 8, !tbaa !150
  store ptr %2, ptr %7, align 8, !tbaa !60
  call void @llvm.lifetime.start.p0(i64 8, ptr %8) #11
  store ptr null, ptr %8, align 8, !tbaa !57
  call void @llvm.lifetime.start.p0(i64 8, ptr %9) #11
  store ptr null, ptr %9, align 8, !tbaa !57
  %18 = load ptr, ptr %5, align 8, !tbaa !57
  %19 = call i32 @strncmp(ptr noundef %18, ptr noundef @.str.71, i64 noundef 2) #14
  %20 = icmp ne i32 %19, 0
  br i1 %20, label %21, label %24

21:                                               ; preds = %3
  %22 = call ptr @sdsnew(ptr noundef @.str.72)
  %23 = load ptr, ptr %7, align 8, !tbaa !60
  store ptr %22, ptr %23, align 8, !tbaa !57
  store i32 -1, ptr %4, align 4
  store i32 1, ptr %10, align 4
  br label %135

24:                                               ; preds = %3
  call void @llvm.lifetime.start.p0(i64 8, ptr %11) #11
  %25 = load ptr, ptr %5, align 8, !tbaa !57
  %26 = call ptr @strchr(ptr noundef %25, i32 noundef 10) #14
  store ptr %26, ptr %11, align 8, !tbaa !57
  %27 = load ptr, ptr %11, align 8, !tbaa !57
  %28 = icmp eq ptr %27, null
  br i1 %28, label %29, label %32

29:                                               ; preds = %24
  %30 = call ptr @sdsnew(ptr noundef @.str.73)
  %31 = load ptr, ptr %7, align 8, !tbaa !60
  store ptr %30, ptr %31, align 8, !tbaa !57
  store i32 -1, ptr %4, align 4
  store i32 1, ptr %10, align 4
  br label %134

32:                                               ; preds = %24
  call void @llvm.lifetime.start.p0(i64 8, ptr %12) #11
  %33 = load ptr, ptr %11, align 8, !tbaa !57
  %34 = load ptr, ptr %5, align 8, !tbaa !57
  %35 = ptrtoint ptr %33 to i64
  %36 = ptrtoint ptr %34 to i64
  %37 = sub i64 %35, %36
  store i64 %37, ptr %12, align 8, !tbaa !59
  call void @llvm.lifetime.start.p0(i64 8, ptr %13) #11
  %38 = load ptr, ptr %5, align 8, !tbaa !57
  %39 = load i64, ptr %12, align 8, !tbaa !59
  %40 = call ptr @sdsnewlen(ptr noundef %38, i64 noundef %39)
  store ptr %40, ptr %13, align 8, !tbaa !57
  call void @llvm.lifetime.start.p0(i64 4, ptr %14) #11
  call void @llvm.lifetime.start.p0(i64 8, ptr %15) #11
  %41 = load ptr, ptr %13, align 8, !tbaa !57
  %42 = call ptr @sdssplitargs(ptr noundef %41, ptr noundef %14)
  store ptr %42, ptr %15, align 8, !tbaa !60
  %43 = load ptr, ptr %13, align 8, !tbaa !57
  call void @sdsfree(ptr noundef %43)
  %44 = load ptr, ptr %15, align 8, !tbaa !60
  %45 = icmp ne ptr %44, null
  br i1 %45, label %46, label %49

46:                                               ; preds = %32
  %47 = load i32, ptr %14, align 4, !tbaa !54
  %48 = icmp eq i32 %47, 0
  br i1 %48, label %49, label %54

49:                                               ; preds = %46, %32
  %50 = call ptr @sdsnew(ptr noundef @.str.73)
  %51 = load ptr, ptr %7, align 8, !tbaa !60
  store ptr %50, ptr %51, align 8, !tbaa !57
  %52 = load ptr, ptr %15, align 8, !tbaa !60
  %53 = load i32, ptr %14, align 4, !tbaa !54
  call void @sdsfreesplitres(ptr noundef %52, i32 noundef %53)
  store i32 -1, ptr %4, align 4
  store i32 1, ptr %10, align 4
  br label %133

54:                                               ; preds = %46
  %55 = load ptr, ptr %15, align 8, !tbaa !60
  %56 = getelementptr inbounds ptr, ptr %55, i64 0
  %57 = load ptr, ptr %56, align 8, !tbaa !57
  %58 = call ptr @sdsdup(ptr noundef %57)
  store ptr %58, ptr %9, align 8, !tbaa !57
  %59 = load ptr, ptr %9, align 8, !tbaa !57
  call void @sdsrange(ptr noundef %59, i64 noundef 2, i64 noundef -1)
  call void @llvm.lifetime.start.p0(i64 4, ptr %16) #11
  store i32 1, ptr %16, align 4, !tbaa !54
  br label %60

60:                                               ; preds = %92, %54
  %61 = load i32, ptr %16, align 4, !tbaa !54
  %62 = load i32, ptr %14, align 4, !tbaa !54
  %63 = icmp slt i32 %61, %62
  br i1 %63, label %65, label %64

64:                                               ; preds = %60
  store i32 2, ptr %10, align 4
  br label %95

65:                                               ; preds = %60
  call void @llvm.lifetime.start.p0(i64 8, ptr %17) #11
  %66 = load ptr, ptr %15, align 8, !tbaa !60
  %67 = load i32, ptr %16, align 4, !tbaa !54
  %68 = sext i32 %67 to i64
  %69 = getelementptr inbounds ptr, ptr %66, i64 %68
  %70 = load ptr, ptr %69, align 8, !tbaa !57
  store ptr %70, ptr %17, align 8, !tbaa !57
  %71 = load ptr, ptr %17, align 8, !tbaa !57
  %72 = call i32 @strncasecmp(ptr noundef %71, ptr noundef @.str.74, i64 noundef 5) #14
  %73 = icmp eq i32 %72, 0
  br i1 %73, label %74, label %85

74:                                               ; preds = %65
  %75 = load ptr, ptr %8, align 8, !tbaa !57
  %76 = icmp ne ptr %75, null
  br i1 %76, label %77, label %81

77:                                               ; preds = %74
  %78 = call ptr @sdsempty()
  %79 = call ptr (ptr, ptr, ...) @sdscatfmt(ptr noundef %78, ptr noundef @.str.75)
  %80 = load ptr, ptr %7, align 8, !tbaa !60
  store ptr %79, ptr %80, align 8, !tbaa !57
  store i32 5, ptr %10, align 4
  br label %90

81:                                               ; preds = %74
  %82 = load ptr, ptr %17, align 8, !tbaa !57
  %83 = call ptr @sdsdup(ptr noundef %82)
  store ptr %83, ptr %8, align 8, !tbaa !57
  %84 = load ptr, ptr %8, align 8, !tbaa !57
  call void @sdsrange(ptr noundef %84, i64 noundef 5, i64 noundef -1)
  store i32 4, ptr %10, align 4
  br label %90

85:                                               ; preds = %65
  %86 = call ptr @sdsempty()
  %87 = load ptr, ptr %17, align 8, !tbaa !57
  %88 = call ptr (ptr, ptr, ...) @sdscatfmt(ptr noundef %86, ptr noundef @.str.76, ptr noundef %87)
  %89 = load ptr, ptr %7, align 8, !tbaa !60
  store ptr %88, ptr %89, align 8, !tbaa !57
  store i32 5, ptr %10, align 4
  br label %90

90:                                               ; preds = %85, %77, %81
  call void @llvm.lifetime.end.p0(i64 8, ptr %17) #11
  %91 = load i32, ptr %10, align 4
  switch i32 %91, label %95 [
    i32 4, label %92
  ]

92:                                               ; preds = %90
  %93 = load i32, ptr %16, align 4, !tbaa !54
  %94 = add nsw i32 %93, 1
  store i32 %94, ptr %16, align 4, !tbaa !54
  br label %60, !llvm.loop !152

95:                                               ; preds = %90, %64
  call void @llvm.lifetime.end.p0(i64 4, ptr %16) #11
  %96 = load i32, ptr %10, align 4
  switch i32 %96, label %133 [
    i32 2, label %97
    i32 5, label %120
  ]

97:                                               ; preds = %95
  %98 = load ptr, ptr %8, align 8, !tbaa !57
  %99 = icmp ne ptr %98, null
  br i1 %99, label %103, label %100

100:                                              ; preds = %97
  %101 = call ptr @sdsnew(ptr noundef @.str.77)
  %102 = load ptr, ptr %7, align 8, !tbaa !60
  store ptr %101, ptr %102, align 8, !tbaa !57
  br label %120

103:                                              ; preds = %97
  %104 = load ptr, ptr %15, align 8, !tbaa !60
  %105 = load i32, ptr %14, align 4, !tbaa !54
  call void @sdsfreesplitres(ptr noundef %104, i32 noundef %105)
  %106 = load ptr, ptr %8, align 8, !tbaa !57
  %107 = load ptr, ptr %6, align 8, !tbaa !150
  %108 = getelementptr inbounds nuw %struct.functionsLibMataData, ptr %107, i32 0, i32 1
  store ptr %106, ptr %108, align 8, !tbaa !153
  %109 = load ptr, ptr %11, align 8, !tbaa !57
  %110 = load ptr, ptr %5, align 8, !tbaa !57
  %111 = call i64 @sdslen(ptr noundef %110)
  %112 = load i64, ptr %12, align 8, !tbaa !59
  %113 = sub i64 %111, %112
  %114 = call ptr @sdsnewlen(ptr noundef %109, i64 noundef %113)
  %115 = load ptr, ptr %6, align 8, !tbaa !150
  %116 = getelementptr inbounds nuw %struct.functionsLibMataData, ptr %115, i32 0, i32 2
  store ptr %114, ptr %116, align 8, !tbaa !155
  %117 = load ptr, ptr %9, align 8, !tbaa !57
  %118 = load ptr, ptr %6, align 8, !tbaa !150
  %119 = getelementptr inbounds nuw %struct.functionsLibMataData, ptr %118, i32 0, i32 0
  store ptr %117, ptr %119, align 8, !tbaa !156
  store i32 0, ptr %4, align 4
  store i32 1, ptr %10, align 4
  br label %133

120:                                              ; preds = %95, %100
  %121 = load ptr, ptr %8, align 8, !tbaa !57
  %122 = icmp ne ptr %121, null
  br i1 %122, label %123, label %125

123:                                              ; preds = %120
  %124 = load ptr, ptr %8, align 8, !tbaa !57
  call void @sdsfree(ptr noundef %124)
  br label %125

125:                                              ; preds = %123, %120
  %126 = load ptr, ptr %9, align 8, !tbaa !57
  %127 = icmp ne ptr %126, null
  br i1 %127, label %128, label %130

128:                                              ; preds = %125
  %129 = load ptr, ptr %9, align 8, !tbaa !57
  call void @sdsfree(ptr noundef %129)
  br label %130

130:                                              ; preds = %128, %125
  %131 = load ptr, ptr %15, align 8, !tbaa !60
  %132 = load i32, ptr %14, align 4, !tbaa !54
  call void @sdsfreesplitres(ptr noundef %131, i32 noundef %132)
  store i32 -1, ptr %4, align 4
  store i32 1, ptr %10, align 4
  br label %133

133:                                              ; preds = %130, %103, %95, %49
  call void @llvm.lifetime.end.p0(i64 8, ptr %15) #11
  call void @llvm.lifetime.end.p0(i64 4, ptr %14) #11
  call void @llvm.lifetime.end.p0(i64 8, ptr %13) #11
  call void @llvm.lifetime.end.p0(i64 8, ptr %12) #11
  br label %134

134:                                              ; preds = %133, %29
  call void @llvm.lifetime.end.p0(i64 8, ptr %11) #11
  br label %135

135:                                              ; preds = %134, %21
  call void @llvm.lifetime.end.p0(i64 8, ptr %9) #11
  call void @llvm.lifetime.end.p0(i64 8, ptr %8) #11
  %136 = load i32, ptr %4, align 4
  ret i32 %136
}