; Function Attrs: nounwind uwtable
define dso_local range(i32 -1, 1) i32 @functionExtractLibMetaData(ptr noundef %0, ptr noundef writeonly captures(none) %1, ptr noundef writeonly captures(none) %2) local_unnamed_addr #1 {
sub_0:
  %3 = alloca i32, align 4
  %4 = load i8, ptr %0, align 1
  %.not73 = icmp eq i8 %4, 35
  br i1 %.not73, label %.tail, label %.tail.thread

.tail:                                            ; preds = %sub_0
  %5 = getelementptr inbounds nuw i8, ptr %0, i64 1
  %6 = load i8, ptr %5, align 1
  %7 = icmp eq i8 %6, 33
  br i1 %7, label %9, label %.tail.thread

.tail.thread:                                     ; preds = %sub_0, %.tail
  %8 = tail call ptr @sdsnew(ptr noundef nonnull @.str.72) #12
  store ptr %8, ptr %2, align 8, !tbaa !51
  br label %80

9:                                                ; preds = %.tail
  %10 = tail call ptr @strchr(ptr noundef nonnull dereferenceable(1) %0, i32 noundef 10) #15
  %11 = icmp eq ptr %10, null
  br i1 %11, label %12, label %14

12:                                               ; preds = %9
  %13 = tail call ptr @sdsnew(ptr noundef nonnull @.str.73) #12
  store ptr %13, ptr %2, align 8, !tbaa !51
  br label %80

14:                                               ; preds = %9
  %15 = ptrtoint ptr %10 to i64
  %16 = ptrtoint ptr %0 to i64
  %17 = sub i64 %15, %16
  %18 = tail call ptr @sdsnewlen(ptr noundef nonnull %0, i64 noundef %17) #12
  call void @llvm.lifetime.start.p0(i64 4, ptr nonnull %3) #12
  %19 = call ptr @sdssplitargs(ptr noundef %18, ptr noundef nonnull %3) #12
  call void @sdsfree(ptr noundef %18) #12
  %20 = icmp eq ptr %19, null
  %21 = load i32, ptr %3, align 4
  %22 = icmp eq i32 %21, 0
  %or.cond = select i1 %20, i1 true, i1 %22
  br i1 %or.cond, label %23, label %26

23:                                               ; preds = %14
  %24 = call ptr @sdsnew(ptr noundef nonnull @.str.73) #12
  store ptr %24, ptr %2, align 8, !tbaa !51
  %25 = load i32, ptr %3, align 4, !tbaa !47
  call void @sdsfreesplitres(ptr noundef %19, i32 noundef %25) #12
  br label %79

26:                                               ; preds = %14
  %27 = load ptr, ptr %19, align 8, !tbaa !51
  %28 = call ptr @sdsdup(ptr noundef %27) #12
  call void @sdsrange(ptr noundef %28, i64 noundef 2, i64 noundef -1) #12
  %29 = load i32, ptr %3, align 4, !tbaa !47
  %30 = icmp sgt i32 %29, 1
  br i1 %30, label %.lr.ph, label %.thread63

.lr.ph:                                           ; preds = %26, %38
  %indvars.iv = phi i64 [ %indvars.iv.next, %38 ], [ 1, %26 ]
  %.04771 = phi ptr [ %39, %38 ], [ null, %26 ]
  %31 = getelementptr inbounds nuw ptr, ptr %19, i64 %indvars.iv
  %32 = load ptr, ptr %31, align 8, !tbaa !51
  %33 = call i32 @strncasecmp(ptr noundef %32, ptr noundef nonnull @.str.74, i64 noundef 5) #15
  %34 = icmp eq i32 %33, 0
  br i1 %34, label %35, label %71

35:                                               ; preds = %.lr.ph
  %.not55 = icmp eq ptr %.04771, null
  br i1 %.not55, label %38, label %.thread65

.thread65:                                        ; preds = %35
  %36 = call ptr @sdsempty() #12
  %37 = call ptr (ptr, ptr, ...) @sdscatfmt(ptr noundef %36, ptr noundef nonnull @.str.75) #12
  store ptr %37, ptr %2, align 8, !tbaa !51
  br label %74

38:                                               ; preds = %35
  %39 = call ptr @sdsdup(ptr noundef %32) #12
  call void @sdsrange(ptr noundef %39, i64 noundef 5, i64 noundef -1) #12
  %indvars.iv.next = add nuw nsw i64 %indvars.iv, 1
  %40 = load i32, ptr %3, align 4, !tbaa !47
  %41 = sext i32 %40 to i64
  %42 = icmp slt i64 %indvars.iv.next, %41
  br i1 %42, label %.lr.ph, label %._crit_edge, !llvm.loop !135

._crit_edge:                                      ; preds = %38
  %.not56 = icmp eq ptr %39, null
  br i1 %.not56, label %.thread63, label %44

.thread63:                                        ; preds = %26, %._crit_edge
  %43 = call ptr @sdsnew(ptr noundef nonnull @.str.77) #12
  store ptr %43, ptr %2, align 8, !tbaa !51
  br label %75

44:                                               ; preds = %._crit_edge
  call void @sdsfreesplitres(ptr noundef nonnull %19, i32 noundef %40) #12
  %45 = getelementptr inbounds nuw i8, ptr %1, i64 8
  store ptr %39, ptr %45, align 8, !tbaa !136
  %46 = getelementptr inbounds i8, ptr %0, i64 -1
  %47 = load i8, ptr %46, align 1, !tbaa !44
  %48 = zext i8 %47 to i32
  %49 = and i32 %48, 7
  switch i32 %49, label %sdslen.exit [
    i32 0, label %50
    i32 1, label %53
    i32 2, label %57
    i32 3, label %61
    i32 4, label %65
  ]

50:                                               ; preds = %44
  %51 = lshr i32 %48, 3
  %52 = zext nneg i32 %51 to i64
  br label %sdslen.exit

53:                                               ; preds = %44
  %54 = getelementptr inbounds i8, ptr %0, i64 -3
  %55 = load i8, ptr %54, align 1, !tbaa !44
  %56 = zext i8 %55 to i64
  br label %sdslen.exit

57:                                               ; preds = %44
  %58 = getelementptr inbounds i8, ptr %0, i64 -5
  %59 = load i16, ptr %58, align 1, !tbaa !45
  %60 = zext i16 %59 to i64
  br label %sdslen.exit

61:                                               ; preds = %44
  %62 = getelementptr inbounds i8, ptr %0, i64 -9
  %63 = load i32, ptr %62, align 1, !tbaa !47
  %64 = zext i32 %63 to i64
  br label %sdslen.exit

65:                                               ; preds = %44
  %66 = getelementptr inbounds i8, ptr %0, i64 -17
  %67 = load i64, ptr %66, align 1, !tbaa !49
  br label %sdslen.exit

sdslen.exit:                                      ; preds = %44, %50, %53, %57, %61, %65
  %.0.i = phi i64 [ %67, %65 ], [ %64, %61 ], [ %60, %57 ], [ %56, %53 ], [ %52, %50 ], [ 0, %44 ]
  %68 = sub i64 %.0.i, %17
  %69 = call ptr @sdsnewlen(ptr noundef nonnull %10, i64 noundef %68) #12
  %70 = getelementptr inbounds nuw i8, ptr %1, i64 16
  store ptr %69, ptr %70, align 8, !tbaa !138
  store ptr %28, ptr %1, align 8, !tbaa !139
  br label %79

71:                                               ; preds = %.lr.ph
  %72 = call ptr @sdsempty() #12
  %73 = call ptr (ptr, ptr, ...) @sdscatfmt(ptr noundef %72, ptr noundef nonnull @.str.76, ptr noundef %32) #12
  store ptr %73, ptr %2, align 8, !tbaa !51
  %.not57 = icmp eq ptr %.04771, null
  br i1 %.not57, label %75, label %74

74:                                               ; preds = %.thread65, %71
  call void @sdsfree(ptr noundef nonnull %.04771) #12
  br label %75

75:                                               ; preds = %.thread63, %74, %71
  %.not58 = icmp eq ptr %28, null
  br i1 %.not58, label %77, label %76

76:                                               ; preds = %75
  call void @sdsfree(ptr noundef nonnull %28) #12
  br label %77

77:                                               ; preds = %76, %75
  %78 = load i32, ptr %3, align 4, !tbaa !47
  call void @sdsfreesplitres(ptr noundef nonnull %19, i32 noundef %78) #12
  br label %79

79:                                               ; preds = %77, %sdslen.exit, %23
  %.2 = phi i32 [ -1, %23 ], [ -1, %77 ], [ 0, %sdslen.exit ]
  call void @llvm.lifetime.end.p0(i64 4, ptr nonnull %3) #12
  br label %80

80:                                               ; preds = %12, %79, %.tail.thread
  %.0 = phi i32 [ -1, %.tail.thread ], [ -1, %12 ], [ %.2, %79 ]
  ret i32 %.0
}